; Function Attrs: nounwind sspstrong uwtable
define internal i64 @strscan_set_pos(i64 noundef %0, i64 noundef %1) #0 {
  %3 = tail call ptr @rb_check_typeddata(i64 noundef %0, ptr noundef nonnull @strscanner_type) #12
  %4 = getelementptr inbounds nuw i8, ptr %3, i64 8
  %5 = load i64, ptr %4, align 8, !tbaa !23
  %6 = icmp eq i64 %5, 4
  br i1 %6, label %7, label %9

7:                                                ; preds = %2
  %8 = load i64, ptr @rb_eArgError, align 8, !tbaa !10
  tail call void (i64, ptr, ...) @rb_raise(i64 noundef %8, ptr noundef nonnull @.str.66) #14
  unreachable

9:                                                ; preds = %2
  %10 = and i64 %1, 1
  %.not.i = icmp eq i64 %10, 0
  br i1 %.not.i, label %13, label %11

11:                                               ; preds = %9
  %12 = tail call i64 @rb_fix2int(i64 noundef %1) #12
  br label %rb_num2int_inline.exit

13:                                               ; preds = %9
  %14 = tail call i64 @rb_num2int(i64 noundef %1) #12
  br label %rb_num2int_inline.exit

rb_num2int_inline.exit:                           ; preds = %11, %13
  %.0.i = phi i64 [ %12, %11 ], [ %14, %13 ]
  %sext = shl i64 %.0.i, 32
  %15 = ashr exact i64 %sext, 32
  %16 = and i64 %.0.i, 2147483648
  %.not = icmp eq i64 %16, 0
  br i1 %.not, label %23, label %17

17:                                               ; preds = %rb_num2int_inline.exit
  %18 = load i64, ptr %4, align 8, !tbaa !23
  %19 = inttoptr i64 %18 to ptr
  %20 = getelementptr inbounds nuw i8, ptr %19, i64 16
  %21 = load i64, ptr %20, align 8, !tbaa !32
  %22 = add nsw i64 %21, %15
  br label %23

23:                                               ; preds = %17, %rb_num2int_inline.exit
  %.0 = phi i64 [ %22, %17 ], [ %15, %rb_num2int_inline.exit ]
  %24 = icmp slt i64 %.0, 0
  br i1 %24, label %25, label %27

25:                                               ; preds = %23
  %26 = load i64, ptr @rb_eRangeError, align 8, !tbaa !10
  tail call void (i64, ptr, ...) @rb_raise(i64 noundef %26, ptr noundef nonnull @.str.68) #14
  unreachable

27:                                               ; preds = %23
  %28 = load i64, ptr %4, align 8, !tbaa !23
  %29 = inttoptr i64 %28 to ptr
  %30 = getelementptr inbounds nuw i8, ptr %29, i64 16
  %31 = load i64, ptr %30, align 8, !tbaa !32
  %32 = icmp sgt i64 %.0, %31
  br i1 %32, label %33, label %35

33:                                               ; preds = %27
  %34 = load i64, ptr @rb_eRangeError, align 8, !tbaa !10
  tail call void (i64, ptr, ...) @rb_raise(i64 noundef %34, ptr noundef nonnull @.str.68) #14
  unreachable

35:                                               ; preds = %27
  %36 = getelementptr inbounds nuw i8, ptr %3, i64 24
  store i64 %.0, ptr %36, align 8, !tbaa !29
  %37 = add nuw i64 %.0, 4611686018427387904
  %or.cond.i = icmp sgt i64 %37, -1
  br i1 %or.cond.i, label %38, label %41

38:                                               ; preds = %35
  %39 = shl nuw nsw i64 %.0, 1
  %40 = or disjoint i64 %39, 1
  br label %rb_long2num_inline.exit

41:                                               ; preds = %35
  %42 = tail call i64 @rb_int2big(i64 noundef %.0) #12
  br label %rb_long2num_inline.exit

rb_long2num_inline.exit:                          ; preds = %38, %41
  %.0.i12 = phi i64 [ %40, %38 ], [ %42, %41 ]
  ret i64 %.0.i12
}